target datalayout = "e-m:e-p270:32:32-p271:32:32-p272:64:64-i64:64-i128:128-f80:128-n8:16:32:64-S128"
target triple = "x86_64-pc-linux-gnu"

%struct.Aig_Man_t_ = type { ptr, ptr, ptr, ptr, ptr, ptr, ptr, %struct.Aig_Obj_t_, i32, i32, i32, i32, i32, i32, [7 x i32], i32, ptr, i32, ptr, i32, ptr, i32, i32, i32, ptr, i32, i32, i32, i32, i32, ptr, ptr, i32, ptr, ptr, i32, ptr, ptr, i32, i32, i32, ptr, ptr, ptr, ptr, ptr, ptr, ptr, ptr, ptr, ptr, ptr, ptr, ptr, ptr, i32, ptr, ptr, ptr, ptr, i32, i64, i64, i64, ptr, ptr }
%struct.Aig_Obj_t_ = type { %union.anon, ptr, ptr, i64, i32, i32, %union.anon.0 }
%union.anon = type { ptr }
%union.anon.0 = type { ptr }
%struct.Vec_Ptr_t_ = type { i32, i32, ptr }
%struct.Vec_Int_t_ = type { i32, i32, ptr }
%struct.Fra_Man_t_ = type { ptr, ptr, ptr, i32, ptr, i32, ptr, ptr, ptr, i32, ptr, ptr, ptr, ptr, i32, ptr, i64, i64, ptr, ptr, i32, ptr, i32, i32, i32, i32, i32, i32, i32, i32, i32, i32, i32, i32, i32, i32, i32, i32, i32, i32, i32, i64, i64, i64, i64, i64, i64, i64, i64, i64, i64, i64 }
%struct.Fra_Par_t_ = type { i32, double, i32, i32, double, double, i32, i32, i32, i32, i32, i32, i32, i32, i32, i32, i32, i32, i32, i32, i32, i32, i32, i32, i32 }
%struct.Fra_Cla_t_ = type { ptr, ptr, ptr, ptr, ptr, ptr, ptr, ptr, ptr, i32, i32, ptr, ptr, ptr, ptr }

@.str.5 = private unnamed_addr constant [52 x i8] c"Fra_ImpCheckForNode(): Implication is not refined!\0A\00", align 1

; Function Attrs: inlinehint nounwind uwtable
define internal ptr @Vec_PtrEntry(ptr noundef %0, i32 noundef %1) #2 {
  %3 = alloca ptr, align 8
  %4 = alloca i32, align 4
  store ptr %0, ptr %3, align 8, !tbaa !31
  store i32 %1, ptr %4, align 4, !tbaa !8
  %5 = load ptr, ptr %3, align 8, !tbaa !31
  %6 = getelementptr inbounds nuw %struct.Vec_Ptr_t_, ptr %5, i32 0, i32 2
  %7 = load ptr, ptr %6, align 8, !tbaa !38
  %8 = load i32, ptr %4, align 4, !tbaa !8
  %9 = sext i32 %8 to i64
  %10 = getelementptr inbounds ptr, ptr %7, i64 %9
  %11 = load ptr, ptr %10, align 8, !tbaa !39
  ret ptr %11
}

; Function Attrs: inlinehint nounwind uwtable
define internal void @Vec_IntWriteEntry(ptr noundef %0, i32 noundef %1, i32 noundef %2) #2 {
  %4 = alloca ptr, align 8
  %5 = alloca i32, align 4
  %6 = alloca i32, align 4
  store ptr %0, ptr %4, align 8, !tbaa !41
  store i32 %1, ptr %5, align 4, !tbaa !8
  store i32 %2, ptr %6, align 4, !tbaa !8
  %7 = load i32, ptr %6, align 4, !tbaa !8
  %8 = load ptr, ptr %4, align 8, !tbaa !41
  %9 = getelementptr inbounds nuw %struct.Vec_Int_t_, ptr %8, i32 0, i32 2
  %10 = load ptr, ptr %9, align 8, !tbaa !48
  %11 = load i32, ptr %5, align 4, !tbaa !8
  %12 = sext i32 %11 to i64
  %13 = getelementptr inbounds i32, ptr %10, i64 %12
  store i32 %7, ptr %13, align 4, !tbaa !8
  ret void
}

; Function Attrs: inlinehint nounwind uwtable
define internal i32 @Aig_ObjIsConst1(ptr noundef %0) #2 {
  %2 = alloca ptr, align 8
  store ptr %0, ptr %2, align 8, !tbaa !28
  %3 = load ptr, ptr %2, align 8, !tbaa !28
  %4 = getelementptr inbounds nuw %struct.Aig_Obj_t_, ptr %3, i32 0, i32 3
  %5 = load i64, ptr %4, align 8
  %6 = and i64 %5, 7
  %7 = trunc i64 %6 to i32
  %8 = icmp eq i32 %7, 1
  %9 = zext i1 %8 to i32
  ret i32 %9
}

; Function Attrs: inlinehint nounwind uwtable
define internal ptr @Aig_Regular(ptr noundef %0) #2 {
  %2 = alloca ptr, align 8
  store ptr %0, ptr %2, align 8, !tbaa !28
  %3 = load ptr, ptr %2, align 8, !tbaa !28
  %4 = ptrtoint ptr %3 to i64
  %5 = and i64 %4, -2
  %6 = inttoptr i64 %5 to ptr
  ret ptr %6
}

; Function Attrs: inlinehint nounwind uwtable
define internal i32 @Aig_IsComplement(ptr noundef %0) #2 {
  %2 = alloca ptr, align 8
  store ptr %0, ptr %2, align 8, !tbaa !28
  %3 = load ptr, ptr %2, align 8, !tbaa !28
  %4 = ptrtoint ptr %3 to i64
  %5 = and i64 %4, 1
  %6 = trunc i64 %5 to i32
  ret i32 %6
}

; Function Attrs: inlinehint nounwind uwtable
define internal ptr @Fra_ObjFraig(ptr noundef %0, i32 noundef %1) #2 {
  %3 = alloca ptr, align 8
  %4 = alloca i32, align 4
  store ptr %0, ptr %3, align 8, !tbaa !28
  store i32 %1, ptr %4, align 4, !tbaa !8
  %5 = load ptr, ptr %3, align 8, !tbaa !28
  %6 = getelementptr inbounds nuw %struct.Aig_Obj_t_, ptr %5, i32 0, i32 6
  %7 = load ptr, ptr %6, align 8, !tbaa !90
  %8 = getelementptr inbounds nuw %struct.Fra_Man_t_, ptr %7, i32 0, i32 4
  %9 = load ptr, ptr %8, align 8, !tbaa !91
  %10 = load ptr, ptr %3, align 8, !tbaa !28
  %11 = getelementptr inbounds nuw %struct.Aig_Obj_t_, ptr %10, i32 0, i32 6
  %12 = load ptr, ptr %11, align 8, !tbaa !90
  %13 = getelementptr inbounds nuw %struct.Fra_Man_t_, ptr %12, i32 0, i32 3
  %14 = load i32, ptr %13, align 8, !tbaa !92
  %15 = load ptr, ptr %3, align 8, !tbaa !28
  %16 = getelementptr inbounds nuw %struct.Aig_Obj_t_, ptr %15, i32 0, i32 5
  %17 = load i32, ptr %16, align 4, !tbaa !86
  %18 = mul nsw i32 %14, %17
  %19 = load i32, ptr %4, align 4, !tbaa !8
  %20 = add nsw i32 %18, %19
  %21 = sext i32 %20 to i64
  %22 = getelementptr inbounds ptr, ptr %9, i64 %21
  %23 = load ptr, ptr %22, align 8, !tbaa !28
  ret ptr %23
}

; Function Attrs: inlinehint nounwind uwtable
define internal ptr @Aig_ManObj(ptr noundef %0, i32 noundef %1) #2 {
  %3 = alloca ptr, align 8
  %4 = alloca i32, align 4
  store ptr %0, ptr %3, align 8, !tbaa !89
  store i32 %1, ptr %4, align 4, !tbaa !8
  %5 = load ptr, ptr %3, align 8, !tbaa !89
  %6 = getelementptr inbounds nuw %struct.Aig_Man_t_, ptr %5, i32 0, i32 4
  %7 = load ptr, ptr %6, align 8, !tbaa !16
  %8 = icmp ne ptr %7, null
  br i1 %8, label %9, label %15

9:                                                ; preds = %2
  %10 = load ptr, ptr %3, align 8, !tbaa !89
  %11 = getelementptr inbounds nuw %struct.Aig_Man_t_, ptr %10, i32 0, i32 4
  %12 = load ptr, ptr %11, align 8, !tbaa !16
  %13 = load i32, ptr %4, align 4, !tbaa !8
  %14 = call ptr @Vec_PtrEntry(ptr noundef %12, i32 noundef %13)
  br label %16

15:                                               ; preds = %2
  br label %16

16:                                               ; preds = %15, %9
  %17 = phi ptr [ %14, %9 ], [ null, %15 ]
  ret ptr %17
}

; Function Attrs: inlinehint nounwind uwtable
define internal i32 @Abc_MaxInt(i32 noundef %0, i32 noundef %1) #2 {
  %3 = alloca i32, align 4
  %4 = alloca i32, align 4
  store i32 %0, ptr %3, align 4, !tbaa !8
  store i32 %1, ptr %4, align 4, !tbaa !8
  %5 = load i32, ptr %3, align 4, !tbaa !8
  %6 = load i32, ptr %4, align 4, !tbaa !8
  %7 = icmp sgt i32 %5, %6
  br i1 %7, label %8, label %10

8:                                                ; preds = %2
  %9 = load i32, ptr %3, align 4, !tbaa !8
  br label %12

10:                                               ; preds = %2
  %11 = load i32, ptr %4, align 4, !tbaa !8
  br label %12

12:                                               ; preds = %10, %8
  %13 = phi i32 [ %9, %8 ], [ %11, %10 ]
  ret i32 %13
}

; Function Attrs: inlinehint nounwind uwtable
define internal i32 @Fra_ImpRight(i32 noundef %0) #2 {
  %2 = alloca i32, align 4
  store i32 %0, ptr %2, align 4, !tbaa !8
  %3 = load i32, ptr %2, align 4, !tbaa !8
  %4 = ashr i32 %3, 16
  ret i32 %4
}

; Function Attrs: inlinehint nounwind uwtable
define internal i32 @Fra_ImpLeft(i32 noundef %0) #2 {
  %2 = alloca i32, align 4
  store i32 %0, ptr %2, align 4, !tbaa !8
  %3 = load i32, ptr %2, align 4, !tbaa !8
  %4 = and i32 %3, 65535
  ret i32 %4
}

; Function Attrs: inlinehint nounwind uwtable
define internal i32 @Vec_IntEntry(ptr noundef %0, i32 noundef %1) #2 {
  %3 = alloca ptr, align 8
  %4 = alloca i32, align 4
  store ptr %0, ptr %3, align 8, !tbaa !41
  store i32 %1, ptr %4, align 4, !tbaa !8
  %5 = load ptr, ptr %3, align 8, !tbaa !41
  %6 = getelementptr inbounds nuw %struct.Vec_Int_t_, ptr %5, i32 0, i32 2
  %7 = load ptr, ptr %6, align 8, !tbaa !48
  %8 = load i32, ptr %4, align 4, !tbaa !8
  %9 = sext i32 %8 to i64
  %10 = getelementptr inbounds i32, ptr %7, i64 %9
  %11 = load i32, ptr %10, align 4, !tbaa !8
  ret i32 %11
}

; Function Attrs: inlinehint nounwind uwtable
define internal i32 @Vec_IntSize(ptr noundef %0) #2 {
  %2 = alloca ptr, align 8
  store ptr %0, ptr %2, align 8, !tbaa !41
  %3 = load ptr, ptr %2, align 8, !tbaa !41
  %4 = getelementptr inbounds nuw %struct.Vec_Int_t_, ptr %3, i32 0, i32 1
  %5 = load i32, ptr %4, align 4, !tbaa !45
  ret i32 %5
}

; Function Attrs: nounwind uwtable
define i32 @Fra_ImpCheckForNode(ptr noundef %0, ptr noundef %1, ptr noundef %2, i32 noundef %3) #0 {
  %5 = alloca i32, align 4
  %6 = alloca ptr, align 8
  %7 = alloca ptr, align 8
  %8 = alloca ptr, align 8
  %9 = alloca i32, align 4
  %10 = alloca ptr, align 8
  %11 = alloca ptr, align 8
  %12 = alloca ptr, align 8
  %13 = alloca ptr, align 8
  %14 = alloca i32, align 4
  %15 = alloca i32, align 4
  %16 = alloca i32, align 4
  %17 = alloca i32, align 4
  %18 = alloca i32, align 4
  %19 = alloca i32, align 4
  %20 = alloca i32, align 4
  %21 = alloca i32, align 4
  %22 = alloca i32, align 4
  store ptr %0, ptr %6, align 8, !tbaa !53
  store ptr %1, ptr %7, align 8, !tbaa !41
  store ptr %2, ptr %8, align 8, !tbaa !28
  store i32 %3, ptr %9, align 4, !tbaa !8
  call void @llvm.lifetime.start.p0(i64 8, ptr %10) #10
  call void @llvm.lifetime.start.p0(i64 8, ptr %11) #10
  call void @llvm.lifetime.start.p0(i64 8, ptr %12) #10
  call void @llvm.lifetime.start.p0(i64 8, ptr %13) #10
  call void @llvm.lifetime.start.p0(i64 4, ptr %14) #10
  call void @llvm.lifetime.start.p0(i64 4, ptr %15) #10
  call void @llvm.lifetime.start.p0(i64 4, ptr %16) #10
  call void @llvm.lifetime.start.p0(i64 4, ptr %17) #10
  call void @llvm.lifetime.start.p0(i64 4, ptr %18) #10
  call void @llvm.lifetime.start.p0(i64 4, ptr %19) #10
  call void @llvm.lifetime.start.p0(i64 4, ptr %20) #10
  call void @llvm.lifetime.start.p0(i64 4, ptr %21) #10
  %23 = load i32, ptr %9, align 4, !tbaa !8
  store i32 %23, ptr %14, align 4, !tbaa !8
  br label %24

24:                                               ; preds = %152, %4
  %25 = load i32, ptr %14, align 4, !tbaa !8
  %26 = load ptr, ptr %7, align 8, !tbaa !41
  %27 = call i32 @Vec_IntSize(ptr noundef %26)
  %28 = icmp slt i32 %25, %27
  br i1 %28, label %29, label %33

29:                                               ; preds = %24
  %30 = load ptr, ptr %7, align 8, !tbaa !41
  %31 = load i32, ptr %14, align 4, !tbaa !8
  %32 = call i32 @Vec_IntEntry(ptr noundef %30, i32 noundef %31)
  store i32 %32, ptr %15, align 4, !tbaa !8
  br label %33

33:                                               ; preds = %29, %24
  %34 = phi i1 [ false, %24 ], [ true, %29 ]
  br i1 %34, label %35, label %155

35:                                               ; preds = %33
  %36 = load i32, ptr %15, align 4, !tbaa !8
  %37 = icmp eq i32 %36, 0
  br i1 %37, label %38, label %39

38:                                               ; preds = %35
  br label %152

39:                                               ; preds = %35
  %40 = load i32, ptr %15, align 4, !tbaa !8
  %41 = call i32 @Fra_ImpLeft(i32 noundef %40)
  store i32 %41, ptr %16, align 4, !tbaa !8
  %42 = load i32, ptr %15, align 4, !tbaa !8
  %43 = call i32 @Fra_ImpRight(i32 noundef %42)
  store i32 %43, ptr %17, align 4, !tbaa !8
  %44 = load i32, ptr %16, align 4, !tbaa !8
  %45 = load i32, ptr %17, align 4, !tbaa !8
  %46 = call i32 @Abc_MaxInt(i32 noundef %44, i32 noundef %45)
  store i32 %46, ptr %18, align 4, !tbaa !8
  %47 = load i32, ptr %18, align 4, !tbaa !8
  %48 = load ptr, ptr %8, align 8, !tbaa !28
  %49 = getelementptr inbounds nuw %struct.Aig_Obj_t_, ptr %48, i32 0, i32 5
  %50 = load i32, ptr %49, align 4, !tbaa !86
  %51 = icmp sgt i32 %47, %50
  br i1 %51, label %52, label %54

52:                                               ; preds = %39
  %53 = load i32, ptr %14, align 4, !tbaa !8
  store i32 %53, ptr %5, align 4
  store i32 1, ptr %22, align 4
  br label %157

54:                                               ; preds = %39
  %55 = load ptr, ptr %6, align 8, !tbaa !53
  %56 = getelementptr inbounds nuw %struct.Fra_Man_t_, ptr %55, i32 0, i32 1
  %57 = load ptr, ptr %56, align 8, !tbaa !56
  %58 = load i32, ptr %16, align 4, !tbaa !8
  %59 = call ptr @Aig_ManObj(ptr noundef %57, i32 noundef %58)
  store ptr %59, ptr %10, align 8, !tbaa !28
  %60 = load ptr, ptr %6, align 8, !tbaa !53
  %61 = getelementptr inbounds nuw %struct.Fra_Man_t_, ptr %60, i32 0, i32 1
  %62 = load ptr, ptr %61, align 8, !tbaa !56
  %63 = load i32, ptr %17, align 4, !tbaa !8
  %64 = call ptr @Aig_ManObj(ptr noundef %62, i32 noundef %63)
  store ptr %64, ptr %11, align 8, !tbaa !28
  %65 = load ptr, ptr %10, align 8, !tbaa !28
  %66 = load ptr, ptr %6, align 8, !tbaa !53
  %67 = getelementptr inbounds nuw %struct.Fra_Man_t_, ptr %66, i32 0, i32 0
  %68 = load ptr, ptr %67, align 8, !tbaa !63
  %69 = getelementptr inbounds nuw %struct.Fra_Par_t_, ptr %68, i32 0, i32 16
  %70 = load i32, ptr %69, align 8, !tbaa !84
  %71 = call ptr @Fra_ObjFraig(ptr noundef %65, i32 noundef %70)
  store ptr %71, ptr %12, align 8, !tbaa !28
  %72 = load ptr, ptr %11, align 8, !tbaa !28
  %73 = load ptr, ptr %6, align 8, !tbaa !53
  %74 = getelementptr inbounds nuw %struct.Fra_Man_t_, ptr %73, i32 0, i32 0
  %75 = load ptr, ptr %74, align 8, !tbaa !63
  %76 = getelementptr inbounds nuw %struct.Fra_Par_t_, ptr %75, i32 0, i32 16
  %77 = load i32, ptr %76, align 8, !tbaa !84
  %78 = call ptr @Fra_ObjFraig(ptr noundef %72, i32 noundef %77)
  store ptr %78, ptr %13, align 8, !tbaa !28
  %79 = load ptr, ptr %10, align 8, !tbaa !28
  %80 = getelementptr inbounds nuw %struct.Aig_Obj_t_, ptr %79, i32 0, i32 3
  %81 = load i64, ptr %80, align 8
  %82 = lshr i64 %81, 3
  %83 = and i64 %82, 1
  %84 = trunc i64 %83 to i32
  %85 = load ptr, ptr %12, align 8, !tbaa !28
  %86 = call i32 @Aig_IsComplement(ptr noundef %85)
  %87 = xor i32 %84, %86
  store i32 %87, ptr %20, align 4, !tbaa !8
  %88 = load ptr, ptr %11, align 8, !tbaa !28
  %89 = getelementptr inbounds nuw %struct.Aig_Obj_t_, ptr %88, i32 0, i32 3
  %90 = load i64, ptr %89, align 8
  %91 = lshr i64 %90, 3
  %92 = and i64 %91, 1
  %93 = trunc i64 %92 to i32
  %94 = load ptr, ptr %13, align 8, !tbaa !28
  %95 = call i32 @Aig_IsComplement(ptr noundef %94)
  %96 = xor i32 %93, %95
  store i32 %96, ptr %21, align 4, !tbaa !8
  %97 = load ptr, ptr %12, align 8, !tbaa !28
  %98 = call ptr @Aig_Regular(ptr noundef %97)
  %99 = load ptr, ptr %13, align 8, !tbaa !28
  %100 = call ptr @Aig_Regular(ptr noundef %99)
  %101 = icmp eq ptr %98, %100
  br i1 %101, label %102, label %123

102:                                              ; preds = %54
  %103 = load i32, ptr %20, align 4, !tbaa !8
  %104 = load i32, ptr %21, align 4, !tbaa !8
  %105 = icmp eq i32 %103, %104
  br i1 %105, label %106, label %107

106:                                              ; preds = %102
  br label %152

107:                                              ; preds = %102
  %108 = load ptr, ptr %12, align 8, !tbaa !28
  %109 = call ptr @Aig_Regular(ptr noundef %108)
  %110 = call i32 @Aig_ObjIsConst1(ptr noundef %109)
  %111 = icmp ne i32 %110, 0
  br i1 %111, label %112, label %116

112:                                              ; preds = %107
  %113 = load i32, ptr %20, align 4, !tbaa !8
  %114 = icmp ne i32 %113, 0
  br i1 %114, label %115, label %116

115:                                              ; preds = %112
  br label %152

116:                                              ; preds = %112, %107
  %117 = load ptr, ptr %6, align 8, !tbaa !53
  %118 = getelementptr inbounds nuw %struct.Fra_Man_t_, ptr %117, i32 0, i32 6
  %119 = load ptr, ptr %118, align 8, !tbaa !94
  %120 = getelementptr inbounds nuw %struct.Fra_Cla_t_, ptr %119, i32 0, i32 10
  store i32 1, ptr %120, align 4, !tbaa !95
  %121 = load ptr, ptr %7, align 8, !tbaa !41
  %122 = load i32, ptr %14, align 4, !tbaa !8
  call void @Vec_IntWriteEntry(ptr noundef %121, i32 noundef %122, i32 noundef 0)
  br label %152

123:                                              ; preds = %54
  %124 = load ptr, ptr %6, align 8, !tbaa !53
  %125 = load ptr, ptr %12, align 8, !tbaa !28
  %126 = call ptr @Aig_Regular(ptr noundef %125)
  %127 = load ptr, ptr %13, align 8, !tbaa !28
  %128 = call ptr @Aig_Regular(ptr noundef %127)
  %129 = load i32, ptr %20, align 4, !tbaa !8
  %130 = load i32, ptr %21, align 4, !tbaa !8
  %131 = call i32 @Fra_NodesAreImp(ptr noundef %124, ptr noundef %126, ptr noundef %128, i32 noundef %129, i32 noundef %130)
  store i32 %131, ptr %19, align 4, !tbaa !8
  %132 = load i32, ptr %19, align 4, !tbaa !8
  %133 = icmp ne i32 %132, 1
  br i1 %133, label %134, label %151

134:                                              ; preds = %123
  %135 = load ptr, ptr %6, align 8, !tbaa !53
  %136 = getelementptr inbounds nuw %struct.Fra_Man_t_, ptr %135, i32 0, i32 6
  %137 = load ptr, ptr %136, align 8, !tbaa !94
  %138 = getelementptr inbounds nuw %struct.Fra_Cla_t_, ptr %137, i32 0, i32 10
  store i32 1, ptr %138, align 4, !tbaa !95
  %139 = load i32, ptr %19, align 4, !tbaa !8
  %140 = icmp eq i32 %139, 0
  br i1 %140, label %141, label %143

141:                                              ; preds = %134
  %142 = load ptr, ptr %6, align 8, !tbaa !53
  call void @Fra_SmlResimulate(ptr noundef %142)
  br label %143

143:                                              ; preds = %141, %134
  %144 = load ptr, ptr %7, align 8, !tbaa !41
  %145 = load i32, ptr %14, align 4, !tbaa !8
  %146 = call i32 @Vec_IntEntry(ptr noundef %144, i32 noundef %145)
  %147 = icmp ne i32 %146, 0
  br i1 %147, label %148, label %150

148:                                              ; preds = %143
  %149 = call i32 (ptr, ...) @printf(ptr noundef @.str.5)
  br label %150

150:                                              ; preds = %148, %143
  br label %151

151:                                              ; preds = %150, %123
  br label %152

152:                                              ; preds = %151, %116, %115, %106, %38
  %153 = load i32, ptr %14, align 4, !tbaa !8
  %154 = add nsw i32 %153, 1
  store i32 %154, ptr %14, align 4, !tbaa !8
  br label %24, !llvm.loop !97

155:                                              ; preds = %33
  %156 = load i32, ptr %14, align 4, !tbaa !8
  store i32 %156, ptr %5, align 4
  store i32 1, ptr %22, align 4
  br label %157

157:                                              ; preds = %155, %52
  call void @llvm.lifetime.end.p0(i64 4, ptr %21) #10
  call void @llvm.lifetime.end.p0(i64 4, ptr %20) #10
  call void @llvm.lifetime.end.p0(i64 4, ptr %19) #10
  call void @llvm.lifetime.end.p0(i64 4, ptr %18) #10
  call void @llvm.lifetime.end.p0(i64 4, ptr %17) #10
  call void @llvm.lifetime.end.p0(i64 4, ptr %16) #10
  call void @llvm.lifetime.end.p0(i64 4, ptr %15) #10
  call void @llvm.lifetime.end.p0(i64 4, ptr %14) #10
  call void @llvm.lifetime.end.p0(i64 8, ptr %13) #10
  call void @llvm.lifetime.end.p0(i64 8, ptr %12) #10
  call void @llvm.lifetime.end.p0(i64 8, ptr %11) #10
  call void @llvm.lifetime.end.p0(i64 8, ptr %10) #10
  %158 = load i32, ptr %5, align 4
  ret i32 %158
}