; Function Attrs: nounwind uwtable
define i32 @Fra_ImpCheckForNode(ptr noundef %0, ptr noundef readonly captures(none) %1, ptr noundef readonly captures(none) %2, i32 noundef %3) local_unnamed_addr #0 {
  %5 = getelementptr i8, ptr %1, i64 4
  %.val67 = load i32, ptr %5, align 4, !tbaa !38
  %6 = icmp slt i32 %3, %.val67
  br i1 %6, label %.lr.ph, label %.critedge

.lr.ph:                                           ; preds = %4
  %7 = getelementptr i8, ptr %1, i64 8
  %8 = getelementptr inbounds nuw i8, ptr %2, i64 36
  %9 = getelementptr inbounds nuw i8, ptr %0, i64 8
  %10 = getelementptr inbounds nuw i8, ptr %0, i64 48
  %11 = sext i32 %3 to i64
  br label %12

12:                                               ; preds = %.lr.ph, %95
  %indvars.iv = phi i64 [ %11, %.lr.ph ], [ %indvars.iv.next, %95 ]
  %.val53 = load ptr, ptr %7, align 8, !tbaa !43
  %13 = getelementptr inbounds i32, ptr %.val53, i64 %indvars.iv
  %14 = load i32, ptr %13, align 4, !tbaa !29
  %15 = icmp eq i32 %14, 0
  br i1 %15, label %95, label %16

16:                                               ; preds = %12
  %17 = and i32 %14, 65535
  %18 = ashr i32 %14, 16
  %19 = tail call noundef i32 @llvm.smax.i32(i32 %17, i32 %18)
  %20 = load i32, ptr %8, align 4, !tbaa !81
  %21 = icmp sgt i32 %19, %20
  br i1 %21, label %.critedge.loopexit, label %Aig_ManObj.exit66

Aig_ManObj.exit66:                                ; preds = %16
  %22 = load ptr, ptr %9, align 8, !tbaa !50
  %23 = getelementptr i8, ptr %22, i64 32
  %.val55 = load ptr, ptr %23, align 8, !tbaa !10, !nonnull !90, !noundef !90
  %24 = getelementptr i8, ptr %.val55, i64 8
  %.val.i = load ptr, ptr %24, align 8, !tbaa !25
  %25 = zext nneg i32 %17 to i64
  %26 = getelementptr inbounds nuw ptr, ptr %.val.i, i64 %25
  %27 = load ptr, ptr %26, align 8, !tbaa !26
  %28 = sext i32 %18 to i64
  %29 = getelementptr inbounds ptr, ptr %.val.i, i64 %28
  %30 = load ptr, ptr %29, align 8, !tbaa !26
  %31 = load ptr, ptr %0, align 8, !tbaa !58
  %32 = getelementptr inbounds nuw i8, ptr %31, i64 80
  %33 = load i32, ptr %32, align 8, !tbaa !80
  %34 = getelementptr i8, ptr %27, i64 36
  %.val58 = load i32, ptr %34, align 4, !tbaa !81
  %35 = getelementptr i8, ptr %27, i64 40
  %.val59 = load ptr, ptr %35, align 8, !tbaa !82
  %36 = getelementptr i8, ptr %.val59, i64 24
  %.val59.val = load i32, ptr %36, align 8, !tbaa !83
  %37 = getelementptr i8, ptr %.val59, i64 32
  %.val59.val60 = load ptr, ptr %37, align 8, !tbaa !84
  %38 = mul nsw i32 %.val59.val, %.val58
  %39 = add nsw i32 %38, %33
  %40 = sext i32 %39 to i64
  %41 = getelementptr inbounds ptr, ptr %.val59.val60, i64 %40
  %42 = load ptr, ptr %41, align 8, !tbaa !85
  %43 = getelementptr i8, ptr %30, i64 36
  %.val56 = load i32, ptr %43, align 4, !tbaa !81
  %44 = getelementptr i8, ptr %30, i64 40
  %.val57 = load ptr, ptr %44, align 8, !tbaa !82
  %45 = getelementptr i8, ptr %.val57, i64 24
  %.val57.val = load i32, ptr %45, align 8, !tbaa !83
  %46 = getelementptr i8, ptr %.val57, i64 32
  %.val57.val61 = load ptr, ptr %46, align 8, !tbaa !84
  %47 = mul nsw i32 %.val57.val, %.val56
  %48 = add nsw i32 %47, %33
  %49 = sext i32 %48 to i64
  %50 = getelementptr inbounds ptr, ptr %.val57.val61, i64 %49
  %51 = load ptr, ptr %50, align 8, !tbaa !85
  %52 = getelementptr inbounds nuw i8, ptr %27, i64 24
  %53 = load i64, ptr %52, align 8
  %54 = trunc i64 %53 to i32
  %55 = lshr i32 %54, 3
  %56 = and i32 %55, 1
  %57 = ptrtoint ptr %42 to i64
  %58 = trunc i64 %57 to i32
  %59 = and i32 %58, 1
  %60 = xor i32 %56, %59
  %61 = getelementptr inbounds nuw i8, ptr %30, i64 24
  %62 = load i64, ptr %61, align 8
  %63 = trunc i64 %62 to i32
  %64 = lshr i32 %63, 3
  %65 = ptrtoint ptr %51 to i64
  %66 = trunc i64 %65 to i32
  %67 = xor i32 %64, %66
  %68 = and i32 %67, 1
  %69 = and i64 %57, -2
  %70 = inttoptr i64 %69 to ptr
  %71 = and i64 %65, -2
  %72 = icmp eq i64 %69, %71
  br i1 %72, label %73, label %83

73:                                               ; preds = %Aig_ManObj.exit66
  %74 = icmp eq i32 %60, %68
  br i1 %74, label %95, label %75

75:                                               ; preds = %73
  %76 = getelementptr i8, ptr %70, i64 24
  %.val63 = load i64, ptr %76, align 8
  %77 = and i64 %.val63, 7
  %78 = icmp eq i64 %77, 1
  %79 = icmp ne i32 %56, %59
  %or.cond = select i1 %78, i1 %79, i1 false
  br i1 %or.cond, label %95, label %80

80:                                               ; preds = %75
  %81 = load ptr, ptr %10, align 8, !tbaa !91
  %82 = getelementptr inbounds nuw i8, ptr %81, i64 76
  store i32 1, ptr %82, align 4, !tbaa !92
  store i32 0, ptr %13, align 4, !tbaa !29
  br label %95

83:                                               ; preds = %Aig_ManObj.exit66
  %84 = inttoptr i64 %71 to ptr
  %85 = tail call i32 @Fra_NodesAreImp(ptr noundef nonnull %0, ptr noundef %70, ptr noundef %84, i32 noundef %60, i32 noundef %68) #20
  %.not = icmp eq i32 %85, 1
  br i1 %.not, label %95, label %86

86:                                               ; preds = %83
  %87 = load ptr, ptr %10, align 8, !tbaa !91
  %88 = getelementptr inbounds nuw i8, ptr %87, i64 76
  store i32 1, ptr %88, align 4, !tbaa !92
  %89 = icmp eq i32 %85, 0
  br i1 %89, label %90, label %91

90:                                               ; preds = %86
  tail call void @Fra_SmlResimulate(ptr noundef nonnull %0) #20
  br label %91

91:                                               ; preds = %90, %86
  %.val52 = load ptr, ptr %7, align 8, !tbaa !43
  %92 = getelementptr inbounds i32, ptr %.val52, i64 %indvars.iv
  %93 = load i32, ptr %92, align 4, !tbaa !29
  %.not51 = icmp eq i32 %93, 0
  br i1 %.not51, label %95, label %94

94:                                               ; preds = %91
  %puts = tail call i32 @puts(ptr nonnull dereferenceable(1) @str)
  br label %95

95:                                               ; preds = %83, %94, %91, %75, %73, %12, %80
  %indvars.iv.next = add nsw i64 %indvars.iv, 1
  %.val = load i32, ptr %5, align 4, !tbaa !38
  %96 = sext i32 %.val to i64
  %97 = icmp slt i64 %indvars.iv.next, %96
  br i1 %97, label %12, label %.critedge.loopexit, !llvm.loop !94

.critedge.loopexit:                               ; preds = %95, %16
  %.048.lcssa.ph.in = phi i64 [ %indvars.iv, %16 ], [ %indvars.iv.next, %95 ]
  %.048.lcssa.ph = trunc i64 %.048.lcssa.ph.in to i32
  br label %.critedge

.critedge:                                        ; preds = %.critedge.loopexit, %4
  %.048.lcssa = phi i32 [ %3, %4 ], [ %.048.lcssa.ph, %.critedge.loopexit ]
  ret i32 %.048.lcssa
}